; Function Attrs: nounwind uwtable
define void @Gia_ManRelCompute(ptr noundef %0, ptr noundef readonly captures(none) %1, ptr noundef readonly captures(none) %2, ptr noundef readonly captures(none) %3, ptr noundef captures(none) %4, ptr noundef captures(none) %5) local_unnamed_addr #4 {
  %7 = getelementptr inbounds nuw i8, ptr %0, i64 848
  %8 = load ptr, ptr %7, align 8, !tbaa !160
  %9 = icmp eq ptr %8, null
  br i1 %9, label %Vec_WrdFreeP.exit, label %10

10:                                               ; preds = %6
  %11 = getelementptr inbounds nuw i8, ptr %8, i64 8
  %12 = load ptr, ptr %11, align 8, !tbaa !31
  %.not.i = icmp eq ptr %12, null
  br i1 %.not.i, label %15, label %.thread.i

.thread.i:                                        ; preds = %10
  tail call void @free(ptr noundef nonnull %12) #32
  %13 = load ptr, ptr %7, align 8, !tbaa !160
  %14 = getelementptr inbounds nuw i8, ptr %13, i64 8
  store ptr null, ptr %14, align 8, !tbaa !31
  br label %15

15:                                               ; preds = %.thread.i, %10
  %16 = phi ptr [ %13, %.thread.i ], [ %8, %10 ]
  tail call void @free(ptr noundef nonnull %16) #32
  br label %Vec_WrdFreeP.exit

Vec_WrdFreeP.exit:                                ; preds = %6, %15
  %17 = getelementptr i8, ptr %0, i64 64
  %.val = load ptr, ptr %17, align 8, !tbaa !3
  %18 = getelementptr i8, ptr %.val, i64 4
  %.val.val = load i32, ptr %18, align 4, !tbaa !28
  %19 = icmp slt i32 %.val.val, 7
  %20 = add nsw i32 %.val.val, -6
  %21 = shl nuw i32 1, %20
  %.fr.i = freeze i32 %21
  %22 = select i1 %19, i32 1, i32 %.fr.i
  %23 = select i1 %19, i32 0, i32 %20
  %24 = shl i32 %.val.val, %23
  %25 = tail call noalias dereferenceable_or_null(16) ptr @malloc(i64 noundef 16) #31
  %26 = add i32 %24, -1
  %or.cond.i.i.i = icmp ult i32 %26, 15
  %spec.store.select.i.i.i = select i1 %or.cond.i.i.i, i32 16, i32 %24
  store i32 %spec.store.select.i.i.i, ptr %25, align 8, !tbaa !39
  %.not.i.i.i = icmp eq i32 %spec.store.select.i.i.i, 0
  br i1 %.not.i.i.i, label %Vec_WrdStart.exit.i, label %27

27:                                               ; preds = %Vec_WrdFreeP.exit
  %28 = sext i32 %spec.store.select.i.i.i to i64
  %29 = shl nsw i64 %28, 3
  %30 = tail call noalias ptr @malloc(i64 noundef %29) #31
  br label %Vec_WrdStart.exit.i

Vec_WrdStart.exit.i:                              ; preds = %27, %Vec_WrdFreeP.exit
  %31 = phi ptr [ %30, %27 ], [ null, %Vec_WrdFreeP.exit ]
  %32 = getelementptr inbounds nuw i8, ptr %25, i64 4
  %33 = getelementptr inbounds nuw i8, ptr %25, i64 8
  store ptr %31, ptr %33, align 8, !tbaa !31
  store i32 %24, ptr %32, align 4, !tbaa !37
  %34 = sext i32 %24 to i64
  %35 = shl nsw i64 %34, 3
  tail call void @llvm.memset.p0.i64(ptr align 8 %31, i8 0, i64 %35, i1 false)
  %36 = icmp sgt i32 %.val.val, 0
  %37 = icmp sgt i32 %22, 0
  %or.cond = and i1 %36, %37
  br i1 %or.cond, label %.lr.ph34.split.us.split.us.preheader.i, label %Vec_WrdStartTruthTables.exit

.lr.ph34.split.us.split.us.preheader.i:           ; preds = %Vec_WrdStart.exit.i
  %38 = shl nuw i32 %22, 1
  %smax64.i = tail call i32 @llvm.smax.i32(i32 %38, i32 1)
  %wide.trip.count76.i = zext nneg i32 %.val.val to i64
  %wide.trip.count65.i = zext nneg i32 %smax64.i to i64
  br label %.lr.ph34.split.us.split.us.i

.lr.ph34.split.us.split.us.i:                     ; preds = %..loopexit28_crit_edge.us.us.i, %.lr.ph34.split.us.split.us.preheader.i
  %indvars.iv73.i = phi i64 [ 0, %.lr.ph34.split.us.split.us.preheader.i ], [ %indvars.iv.next74.i, %..loopexit28_crit_edge.us.us.i ]
  %39 = trunc i64 %indvars.iv73.i to i32
  %40 = shl i32 %39, %23
  %41 = sext i32 %40 to i64
  %42 = getelementptr inbounds i64, ptr %31, i64 %41
  %43 = icmp samesign ult i64 %indvars.iv73.i, 5
  br i1 %43, label %.preheader.us.us.i, label %.preheader27.us.us.i

44:                                               ; preds = %.preheader27.us.us.i, %44
  %indvars.iv61.i = phi i64 [ 0, %.preheader27.us.us.i ], [ %indvars.iv.next62.i, %44 ]
  %45 = trunc nuw nsw i64 %indvars.iv61.i to i32
  %46 = and i32 %53, %45
  %.not.us.us.i = icmp ne i32 %46, 0
  %spec.select.i = sext i1 %.not.us.us.i to i32
  %47 = getelementptr inbounds nuw i32, ptr %42, i64 %indvars.iv61.i
  store i32 %spec.select.i, ptr %47, align 4, !tbaa !30
  %indvars.iv.next62.i = add nuw nsw i64 %indvars.iv61.i, 1
  %exitcond66.not.i = icmp eq i64 %indvars.iv.next62.i, %wide.trip.count65.i
  br i1 %exitcond66.not.i, label %..loopexit28_crit_edge.us.us.i, label %44, !llvm.loop !393

..loopexit28_crit_edge.us.us.i:                   ; preds = %44, %48
  %indvars.iv.next74.i = add nuw nsw i64 %indvars.iv73.i, 1
  %exitcond77.not.i = icmp eq i64 %indvars.iv.next74.i, %wide.trip.count76.i
  br i1 %exitcond77.not.i, label %Vec_WrdStartTruthTables.exit, label %.lr.ph34.split.us.split.us.i, !llvm.loop !394

48:                                               ; preds = %.preheader.us.us.i, %48
  %indvars.iv67.i = phi i64 [ 0, %.preheader.us.us.i ], [ %indvars.iv.next68.i, %48 ]
  %49 = getelementptr inbounds nuw i32, ptr %42, i64 %indvars.iv67.i
  store i32 %51, ptr %49, align 4, !tbaa !30
  %indvars.iv.next68.i = add nuw nsw i64 %indvars.iv67.i, 1
  %exitcond72.not.i = icmp eq i64 %indvars.iv.next68.i, %wide.trip.count65.i
  br i1 %exitcond72.not.i, label %..loopexit28_crit_edge.us.us.i, label %48, !llvm.loop !395

.preheader.us.us.i:                               ; preds = %.lr.ph34.split.us.split.us.i
  %50 = getelementptr inbounds nuw [5 x i32], ptr @__const.Vec_WrdStartTruthTables.Masks, i64 0, i64 %indvars.iv73.i
  %51 = load i32, ptr %50, align 4, !tbaa !30
  br label %48

.preheader27.us.us.i:                             ; preds = %.lr.ph34.split.us.split.us.i
  %52 = add i32 %39, -5
  %53 = shl nuw i32 1, %52
  br label %44

Vec_WrdStartTruthTables.exit:                     ; preds = %..loopexit28_crit_edge.us.us.i, %Vec_WrdStart.exit.i
  store ptr %25, ptr %7, align 8, !tbaa !36
  %54 = tail call i32 @Gia_ManRelCheck(ptr noundef %0, ptr noundef %1, ptr noundef %2, ptr noundef %3)
  %.not = icmp eq i32 %54, 0
  %str.11.str.12 = select i1 %.not, ptr @str.11, ptr @str.12
  %puts24 = tail call i32 @puts(ptr nonnull dereferenceable(1) %str.11.str.12)
  %55 = tail call ptr @Gia_ManSimPatSim(ptr noundef nonnull %0)
  %56 = tail call ptr @Gia_ManRelDeriveRel(ptr noundef nonnull %0, ptr noundef %1, ptr noundef %2, ptr noundef %3, ptr noundef %55)
  tail call void @Gia_ManRelDeriveSims(ptr noundef nonnull %0, ptr noundef %1, ptr noundef %2, ptr poison, ptr poison, ptr noundef %56, ptr noundef %4, ptr noundef %5)
  %57 = getelementptr inbounds nuw i8, ptr %56, i64 8
  %58 = load ptr, ptr %57, align 8, !tbaa !31
  %.not.i25 = icmp eq ptr %58, null
  br i1 %.not.i25, label %Vec_WrdFree.exit, label %59

59:                                               ; preds = %Vec_WrdStartTruthTables.exit
  tail call void @free(ptr noundef nonnull %58) #32
  br label %Vec_WrdFree.exit

Vec_WrdFree.exit:                                 ; preds = %Vec_WrdStartTruthTables.exit, %59
  tail call void @free(ptr noundef nonnull %56) #32
  %60 = getelementptr inbounds nuw i8, ptr %55, i64 8
  %61 = load ptr, ptr %60, align 8, !tbaa !31
  %.not.i26 = icmp eq ptr %61, null
  br i1 %.not.i26, label %Vec_WrdFree.exit27, label %62

62:                                               ; preds = %Vec_WrdFree.exit
  tail call void @free(ptr noundef nonnull %61) #32
  br label %Vec_WrdFree.exit27

Vec_WrdFree.exit27:                               ; preds = %Vec_WrdFree.exit, %62
  tail call void @free(ptr noundef nonnull %55) #32
  %63 = load ptr, ptr %7, align 8, !tbaa !160
  %64 = icmp eq ptr %63, null
  br i1 %64, label %Vec_WrdFreeP.exit30, label %65

65:                                               ; preds = %Vec_WrdFree.exit27
  %66 = getelementptr inbounds nuw i8, ptr %63, i64 8
  %67 = load ptr, ptr %66, align 8, !tbaa !31
  %.not.i28 = icmp eq ptr %67, null
  br i1 %.not.i28, label %70, label %.thread.i29

.thread.i29:                                      ; preds = %65
  tail call void @free(ptr noundef nonnull %67) #32
  %68 = load ptr, ptr %7, align 8, !tbaa !160
  %69 = getelementptr inbounds nuw i8, ptr %68, i64 8
  store ptr null, ptr %69, align 8, !tbaa !31
  br label %70

70:                                               ; preds = %.thread.i29, %65
  %71 = phi ptr [ %68, %.thread.i29 ], [ %63, %65 ]
  tail call void @free(ptr noundef nonnull %71) #32
  store ptr null, ptr %7, align 8, !tbaa !160
  br label %Vec_WrdFreeP.exit30

Vec_WrdFreeP.exit30:                              ; preds = %Vec_WrdFree.exit27, %70
  ret void
}